; Function Attrs: nounwind uwtable
define ptr @lv_draw_buf_align_ex(ptr noundef readonly captures(none) %0, ptr noundef %1, i32 noundef %2) local_unnamed_addr #0 {
  %4 = getelementptr inbounds nuw i8, ptr %0, i64 16
  %5 = load ptr, ptr %4, align 8, !tbaa !9
  %.not = icmp eq ptr %5, null
  br i1 %.not, label %8, label %6

6:                                                ; preds = %3
  %7 = tail call ptr %5(ptr noundef %1, i32 noundef %2) #9
  br label %8

8:                                                ; preds = %3, %6
  %.0 = phi ptr [ %7, %6 ], [ null, %3 ]
  ret ptr %.0
}